target datalayout = "e-m:e-p270:32:32-p271:32:32-p272:64:64-i64:64-i128:128-f80:128-n8:16:32:64-S128"
target triple = "x86_64-pc-linux-gnu"

%"class.nanobind::handle" = type { ptr }
%"struct.nanobind::detail::type_caster.355" = type { %"struct.nanobind::detail::type_caster_base.356" }
%"struct.nanobind::detail::type_caster_base.356" = type { ptr }
%class.anon.378 = type { i8 }
%"struct.nanobind::detail::tuple.380" = type { %"struct.nanobind::detail::type_caster.355" }

@_ZTIZL30nanobind_init_test_classes_extRN8nanobind7module_EE3Dog = internal constant { ptr, ptr, ptr } { ptr getelementptr inbounds (ptr, ptr @_ZTVN10__cxxabiv120__si_class_type_infoE, i64 2), ptr @_ZTSZL30nanobind_init_test_classes_extRN8nanobind7module_EE3Dog, ptr @_ZTI6Animal }, align 8

; Function Attrs: noinline noreturn nounwind optsize uwtable
define linkonce_odr hidden void @__clang_call_terminate(ptr noundef %0) #11 comdat {
  %2 = call ptr @__cxa_begin_catch(ptr %0) #2
  call void @_ZSt9terminatev() #26
  unreachable
}

; Function Attrs: alwaysinline mustprogress nounwind optsize uwtable
define internal noundef i32 @_ZN8nanobind6detail12infer_policyIPZL30nanobind_init_test_classes_extRNS_7module_EE3DogEENS_9rv_policyES6_(i32 noundef %0) #5 {
  %2 = alloca i32, align 4
  store i32 %0, ptr %2, align 4, !tbaa !43
  %3 = load i32, ptr %2, align 4, !tbaa !43
  %4 = icmp eq i32 %3, 0
  br i1 %4, label %5, label %6

5:                                                ; preds = %1
  store i32 2, ptr %2, align 4, !tbaa !43
  br label %11

6:                                                ; preds = %1
  %7 = load i32, ptr %2, align 4, !tbaa !43
  %8 = icmp eq i32 %7, 1
  br i1 %8, label %9, label %10

9:                                                ; preds = %6
  store i32 5, ptr %2, align 4, !tbaa !43
  br label %10

10:                                               ; preds = %9, %6
  br label %11

11:                                               ; preds = %10, %5
  %12 = load i32, ptr %2, align 4, !tbaa !43
  ret i32 %12
}

; Function Attrs: alwaysinline mustprogress nounwind optsize uwtable
define linkonce_odr hidden noundef ptr @_ZNK8nanobind6handle3ptrEv(ptr noundef nonnull align 8 dereferenceable(8) %0) #5 comdat align 2 {
  %2 = alloca ptr, align 8
  store ptr %0, ptr %2, align 8, !tbaa !28
  %3 = load ptr, ptr %2, align 8
  %4 = getelementptr inbounds nuw %"class.nanobind::handle", ptr %3, i32 0, i32 0
  %5 = load ptr, ptr %4, align 8, !tbaa !30
  ret ptr %5
}

; Function Attrs: alwaysinline mustprogress nounwind optsize uwtable
define internal ptr @_ZN8nanobind6detail16type_caster_baseIZL30nanobind_init_test_classes_extRNS_7module_EE3DogE8from_cppIPS4_EENS_6handleEOT_NS_9rv_policyEPNS0_12cleanup_listE(ptr noundef nonnull align 8 dereferenceable(8) %0, i32 noundef %1, ptr noundef %2) #5 align 2 personality ptr @__gxx_personality_v0 {
  %4 = alloca %"class.nanobind::handle", align 8
  %5 = alloca ptr, align 8
  %6 = alloca i32, align 4
  %7 = alloca ptr, align 8
  %8 = alloca ptr, align 8
  %9 = alloca ptr, align 8
  %10 = alloca i8, align 1
  %11 = alloca ptr, align 8
  store ptr %0, ptr %5, align 8, !tbaa !764
  store i32 %1, ptr %6, align 4, !tbaa !43
  store ptr %2, ptr %7, align 8, !tbaa !426
  call void @llvm.lifetime.start.p0(i64 8, ptr %8) #2
  %12 = load ptr, ptr %5, align 8, !tbaa !764
  %13 = load ptr, ptr %12, align 8, !tbaa !697
  store ptr %13, ptr %8, align 8, !tbaa !697
  %14 = load i32, ptr %6, align 4, !tbaa !43
  %15 = invoke noundef i32 @_ZN8nanobind6detail12infer_policyIPZL30nanobind_init_test_classes_extRNS_7module_EE3DogEENS_9rv_policyES6_(i32 noundef %14) #25
          to label %16 unwind label %40

16:                                               ; preds = %3
  store i32 %15, ptr %6, align 4, !tbaa !43
  call void @llvm.lifetime.start.p0(i64 8, ptr %9) #2
  store ptr @_ZTIZL30nanobind_init_test_classes_extRN8nanobind7module_EE3Dog, ptr %9, align 8, !tbaa !419
  call void @llvm.lifetime.start.p0(i64 1, ptr %10) #2
  store i8 0, ptr %10, align 1, !tbaa !217
  call void @llvm.lifetime.start.p0(i64 8, ptr %11) #2
  %17 = load ptr, ptr %8, align 8, !tbaa !697
  %18 = icmp ne ptr %17, null
  br i1 %18, label %19, label %28

19:                                               ; preds = %16
  %20 = load ptr, ptr %8, align 8, !tbaa !697
  %21 = icmp eq ptr %20, null
  br i1 %21, label %22, label %24

22:                                               ; preds = %19
  invoke void @__cxa_bad_typeid() #30
          to label %23 unwind label %40

23:                                               ; preds = %22
  unreachable

24:                                               ; preds = %19
  %25 = load ptr, ptr %20, align 8, !tbaa !38
  %26 = getelementptr inbounds ptr, ptr %25, i64 -1
  %27 = load ptr, ptr %26, align 8
  br label %29

28:                                               ; preds = %16
  br label %29

29:                                               ; preds = %28, %24
  %30 = phi ptr [ %27, %24 ], [ null, %28 ]
  store ptr %30, ptr %11, align 8, !tbaa !419
  %31 = load ptr, ptr %9, align 8, !tbaa !419
  %32 = load ptr, ptr %11, align 8, !tbaa !419
  %33 = load ptr, ptr %8, align 8, !tbaa !697
  %34 = load i32, ptr %6, align 4, !tbaa !43
  %35 = load ptr, ptr %7, align 8, !tbaa !426
  %36 = call noundef ptr @_ZN8nanobind6detail13nb_type_put_pEPKSt9type_infoS3_PvNS_9rv_policyEPNS0_12cleanup_listEPb(ptr noundef %31, ptr noundef %32, ptr noundef %33, i32 noundef %34, ptr noundef %35, ptr noundef null) #24
  invoke void @_ZN8nanobind6handleC2EPK7_object(ptr noundef nonnull align 8 dereferenceable(8) %4, ptr noundef %36) #25
          to label %37 unwind label %40

37:                                               ; preds = %29
  call void @llvm.lifetime.end.p0(i64 8, ptr %11) #2
  call void @llvm.lifetime.end.p0(i64 1, ptr %10) #2
  call void @llvm.lifetime.end.p0(i64 8, ptr %9) #2
  call void @llvm.lifetime.end.p0(i64 8, ptr %8) #2
  %38 = getelementptr inbounds nuw %"class.nanobind::handle", ptr %4, i32 0, i32 0
  %39 = load ptr, ptr %38, align 8
  ret ptr %39

40:                                               ; preds = %29, %22, %3
  %41 = landingpad { ptr, i32 }
          catch ptr null
  %42 = extractvalue { ptr, i32 } %41, 0
  call void @__clang_call_terminate(ptr %42) #26
  unreachable
}

; Function Attrs: inlinehint mustprogress nounwind optsize uwtable
define internal noundef ptr @"_ZZL30nanobind_init_test_classes_extRN8nanobind7module_EENK3$_9clEPZL30nanobind_init_test_classes_extS1_E3Dog"(ptr noundef nonnull align 1 dereferenceable(1) %0, ptr noundef %1) #12 align 2 {
  %3 = alloca ptr, align 8
  %4 = alloca ptr, align 8
  store ptr %0, ptr %3, align 8, !tbaa !23
  store ptr %1, ptr %4, align 8, !tbaa !697
  %5 = load ptr, ptr %4, align 8, !tbaa !697
  ret ptr %5
}

; Function Attrs: mustprogress nounwind optsize uwtable
define internal noundef ptr @_ZN8nanobind6detail16type_caster_baseIZL30nanobind_init_test_classes_extRNS_7module_EE3DogEcvPS4_Ev(ptr noundef nonnull align 8 dereferenceable(8) %0) #1 align 2 {
  %2 = alloca ptr, align 8
  store ptr %0, ptr %2, align 8, !tbaa !719
  %3 = load ptr, ptr %2, align 8
  %4 = getelementptr inbounds nuw %"struct.nanobind::detail::type_caster_base.356", ptr %3, i32 0, i32 0
  %5 = load ptr, ptr %4, align 8, !tbaa !721
  ret ptr %5
}

; Function Attrs: alwaysinline mustprogress nounwind optsize uwtable
define internal noundef zeroext i1 @_ZN8nanobind6detail16type_caster_baseIZL30nanobind_init_test_classes_extRNS_7module_EE3DogE11from_pythonENS_6handleEhPNS0_12cleanup_listE(ptr noundef nonnull align 8 dereferenceable(8) %0, ptr %1, i8 noundef zeroext %2, ptr noundef %3) #5 align 2 {
  %5 = alloca %"class.nanobind::handle", align 8
  %6 = alloca ptr, align 8
  %7 = alloca i8, align 1
  %8 = alloca ptr, align 8
  %9 = getelementptr inbounds nuw %"class.nanobind::handle", ptr %5, i32 0, i32 0
  store ptr %1, ptr %9, align 8
  store ptr %0, ptr %6, align 8, !tbaa !719
  store i8 %2, ptr %7, align 1, !tbaa !42
  store ptr %3, ptr %8, align 8, !tbaa !426
  %10 = load ptr, ptr %6, align 8
  %11 = call noundef ptr @_ZNK8nanobind6handle3ptrEv(ptr noundef nonnull align 8 dereferenceable(8) %5) #25
  %12 = load i8, ptr %7, align 1, !tbaa !42
  %13 = load ptr, ptr %8, align 8, !tbaa !426
  %14 = getelementptr inbounds nuw %"struct.nanobind::detail::type_caster_base.356", ptr %10, i32 0, i32 0
  %15 = call noundef zeroext i1 @_ZN8nanobind6detail11nb_type_getEPKSt9type_infoP7_objecthPNS0_12cleanup_listEPPv(ptr noundef @_ZTIZL30nanobind_init_test_classes_extRN8nanobind7module_EE3Dog, ptr noundef %11, i8 noundef zeroext %12, ptr noundef %13, ptr noundef %14) #24
  ret i1 %15
}

; Function Attrs: alwaysinline mustprogress nounwind optsize uwtable
define linkonce_odr hidden void @_ZN8nanobind6handleC2EPK7_object(ptr noundef nonnull align 8 dereferenceable(8) %0, ptr noundef %1) unnamed_addr #5 comdat align 2 {
  %3 = alloca ptr, align 8
  %4 = alloca ptr, align 8
  store ptr %0, ptr %3, align 8, !tbaa !28
  store ptr %1, ptr %4, align 8, !tbaa !21
  %5 = load ptr, ptr %3, align 8
  %6 = getelementptr inbounds nuw %"class.nanobind::handle", ptr %5, i32 0, i32 0
  %7 = load ptr, ptr %4, align 8, !tbaa !21
  store ptr %7, ptr %6, align 8, !tbaa !30
  ret void
}

; Function Attrs: alwaysinline mustprogress nounwind optsize uwtable
define internal noundef nonnull align 8 dereferenceable(8) ptr @_ZN8nanobind6detail5tupleIJNS0_11type_casterIZL30nanobind_init_test_classes_extRNS_7module_EE3DogiEEEE3getILm0EEERDav(ptr noundef nonnull align 8 dereferenceable(8) %0) #5 align 2 {
  %2 = alloca ptr, align 8
  store ptr %0, ptr %2, align 8, !tbaa !762
  %3 = load ptr, ptr %2, align 8
  %4 = getelementptr inbounds nuw %"struct.nanobind::detail::tuple.380", ptr %3, i32 0, i32 0
  ret ptr %4
}

; Function Attrs: alwaysinline mustprogress optsize uwtable
define internal noundef ptr @"_ZZN8nanobind6detail11func_createILb0ELb1EZL30nanobind_init_test_classes_extRNS_7module_EE3$_9PZL30nanobind_init_test_classes_extS3_E3DogJS6_EJLm0EEJNS_5scopeENS_4nameENS_9rv_policyEEEEP7_objectOT1_PFT2_DpT3_ESt16integer_sequenceImJXspT4_EEEDpRKT5_ENKUlPvPSB_PhS9_PNS0_12cleanup_listEE_clESP_SQ_SR_S9_ST_"(ptr noundef nonnull align 1 dereferenceable(1) %0, ptr noundef %1, ptr noundef %2, ptr noundef %3, i32 noundef %4, ptr noundef %5) #8 align 2 {
  %7 = alloca ptr, align 8
  %8 = alloca ptr, align 8
  %9 = alloca ptr, align 8
  %10 = alloca ptr, align 8
  %11 = alloca ptr, align 8
  %12 = alloca i32, align 4
  %13 = alloca ptr, align 8
  %14 = alloca ptr, align 8
  %15 = alloca %"struct.nanobind::detail::tuple.380", align 8
  %16 = alloca %"class.nanobind::handle", align 8
  %17 = alloca i32, align 4
  %18 = alloca ptr, align 8
  %19 = alloca %"class.nanobind::handle", align 8
  %20 = alloca ptr, align 8
  store ptr %0, ptr %8, align 8, !tbaa !23
  store ptr %1, ptr %9, align 8, !tbaa !23
  store ptr %2, ptr %10, align 8, !tbaa !424
  store ptr %3, ptr %11, align 8, !tbaa !116
  store i32 %4, ptr %12, align 4, !tbaa !43
  store ptr %5, ptr %13, align 8, !tbaa !426
  call void @llvm.lifetime.start.p0(i64 8, ptr %14) #2
  %21 = load ptr, ptr %9, align 8, !tbaa !23
  store ptr %21, ptr %14, align 8, !tbaa !758
  call void @llvm.lifetime.start.p0(i64 8, ptr %15) #2
  %22 = call noundef nonnull align 8 dereferenceable(8) ptr @_ZN8nanobind6detail5tupleIJNS0_11type_casterIZL30nanobind_init_test_classes_extRNS_7module_EE3DogiEEEE3getILm0EEERDav(ptr noundef nonnull align 8 dereferenceable(8) %15) #25
  %23 = load ptr, ptr %10, align 8, !tbaa !424
  %24 = getelementptr inbounds nuw ptr, ptr %23, i64 0
  %25 = load ptr, ptr %24, align 8, !tbaa !21
  call void @_ZN8nanobind6handleC2EPK7_object(ptr noundef nonnull align 8 dereferenceable(8) %16, ptr noundef %25) #25
  %26 = load ptr, ptr %11, align 8, !tbaa !116
  %27 = getelementptr inbounds nuw i8, ptr %26, i64 0
  %28 = load i8, ptr %27, align 1, !tbaa !42
  %29 = load ptr, ptr %13, align 8, !tbaa !426
  %30 = getelementptr inbounds nuw %"class.nanobind::handle", ptr %16, i32 0, i32 0
  %31 = load ptr, ptr %30, align 8
  %32 = call noundef zeroext i1 @_ZN8nanobind6detail16type_caster_baseIZL30nanobind_init_test_classes_extRNS_7module_EE3DogE11from_pythonENS_6handleEhPNS0_12cleanup_listE(ptr noundef nonnull align 8 dereferenceable(8) %22, ptr %31, i8 noundef zeroext %28, ptr noundef %29) #24
  br i1 %32, label %34, label %33

33:                                               ; preds = %6
  store ptr inttoptr (i64 1 to ptr), ptr %7, align 8
  store i32 1, ptr %17, align 4
  br label %45

34:                                               ; preds = %6
  call void @llvm.lifetime.start.p0(i64 8, ptr %18) #2
  call void @llvm.lifetime.start.p0(i64 8, ptr %19) #2
  call void @llvm.lifetime.start.p0(i64 8, ptr %20) #2
  %35 = load ptr, ptr %14, align 8, !tbaa !758
  %36 = call noundef nonnull align 8 dereferenceable(8) ptr @_ZN8nanobind6detail5tupleIJNS0_11type_casterIZL30nanobind_init_test_classes_extRNS_7module_EE3DogiEEEE3getILm0EEERDav(ptr noundef nonnull align 8 dereferenceable(8) %15) #25
  %37 = call noundef ptr @_ZN8nanobind6detail16type_caster_baseIZL30nanobind_init_test_classes_extRNS_7module_EE3DogEcvPS4_Ev(ptr noundef nonnull align 8 dereferenceable(8) %36) #25
  %38 = call noundef ptr @"_ZZL30nanobind_init_test_classes_extRN8nanobind7module_EENK3$_9clEPZL30nanobind_init_test_classes_extS1_E3Dog"(ptr noundef nonnull align 1 dereferenceable(1) %35, ptr noundef %37) #25
  store ptr %38, ptr %20, align 8, !tbaa !697
  %39 = load i32, ptr %12, align 4, !tbaa !43
  %40 = load ptr, ptr %13, align 8, !tbaa !426
  %41 = call ptr @_ZN8nanobind6detail16type_caster_baseIZL30nanobind_init_test_classes_extRNS_7module_EE3DogE8from_cppIPS4_EENS_6handleEOT_NS_9rv_policyEPNS0_12cleanup_listE(ptr noundef nonnull align 8 dereferenceable(8) %20, i32 noundef %39, ptr noundef %40) #24
  %42 = getelementptr inbounds nuw %"class.nanobind::handle", ptr %19, i32 0, i32 0
  store ptr %41, ptr %42, align 8
  %43 = call noundef ptr @_ZNK8nanobind6handle3ptrEv(ptr noundef nonnull align 8 dereferenceable(8) %19) #25
  store ptr %43, ptr %18, align 8, !tbaa !21
  call void @llvm.lifetime.end.p0(i64 8, ptr %20) #2
  call void @llvm.lifetime.end.p0(i64 8, ptr %19) #2
  %44 = load ptr, ptr %18, align 8, !tbaa !21
  store ptr %44, ptr %7, align 8
  store i32 1, ptr %17, align 4
  call void @llvm.lifetime.end.p0(i64 8, ptr %18) #2
  br label %45

45:                                               ; preds = %34, %33
  call void @llvm.lifetime.end.p0(i64 8, ptr %15) #2
  call void @llvm.lifetime.end.p0(i64 8, ptr %14) #2
  %46 = load ptr, ptr %7, align 8
  ret ptr %46
}

; Function Attrs: inlinehint mustprogress optsize uwtable
define internal noundef ptr @"_ZZN8nanobind6detail11func_createILb0ELb1EZL30nanobind_init_test_classes_extRNS_7module_EE3$_9PZL30nanobind_init_test_classes_extS3_E3DogJS6_EJLm0EEJNS_5scopeENS_4nameENS_9rv_policyEEEEP7_objectOT1_PFT2_DpT3_ESt16integer_sequenceImJXspT4_EEEDpRKT5_ENUlPvPSB_PhS9_PNS0_12cleanup_listEE_8__invokeESP_SQ_SR_S9_ST_"(ptr noundef %0, ptr noundef %1, ptr noundef %2, i32 noundef %3, ptr noundef %4) #14 align 2 {
  %6 = alloca ptr, align 8
  %7 = alloca ptr, align 8
  %8 = alloca ptr, align 8
  %9 = alloca i32, align 4
  %10 = alloca ptr, align 8
  %11 = alloca %class.anon.378, align 1
  store ptr %0, ptr %6, align 8, !tbaa !23
  store ptr %1, ptr %7, align 8, !tbaa !424
  store ptr %2, ptr %8, align 8, !tbaa !116
  store i32 %3, ptr %9, align 4, !tbaa !43
  store ptr %4, ptr %10, align 8, !tbaa !426
  %12 = load ptr, ptr %6, align 8, !tbaa !23
  %13 = load ptr, ptr %7, align 8, !tbaa !424
  %14 = load ptr, ptr %8, align 8, !tbaa !116
  %15 = load i32, ptr %9, align 4, !tbaa !43
  %16 = load ptr, ptr %10, align 8, !tbaa !426
  %17 = call noundef ptr @"_ZZN8nanobind6detail11func_createILb0ELb1EZL30nanobind_init_test_classes_extRNS_7module_EE3$_9PZL30nanobind_init_test_classes_extS3_E3DogJS6_EJLm0EEJNS_5scopeENS_4nameENS_9rv_policyEEEEP7_objectOT1_PFT2_DpT3_ESt16integer_sequenceImJXspT4_EEEDpRKT5_ENKUlPvPSB_PhS9_PNS0_12cleanup_listEE_clESP_SQ_SR_S9_ST_"(ptr noundef nonnull align 1 dereferenceable(1) %11, ptr noundef %12, ptr noundef %13, ptr noundef %14, i32 noundef %15, ptr noundef %16) #25
  ret ptr %17
}